target datalayout = "e-m:e-p270:32:32-p271:32:32-p272:64:64-i64:64-i128:128-f80:128-n8:16:32:64-S128"
target triple = "x86_64-pc-linux-gnu"

%struct.expert_field = type { i32, i32 }

@hf_ansi_801_reserved_bits = internal global i32 0, align 4
@hf_ansi_801_bad_sv_present = internal global i32 0, align 4
@hf_ansi_801_num_bad_sv = internal global i32 0, align 4
@hf_ansi_801_bad_sv_prn_num = internal global i32 0, align 4
@ei_ansi_801_extraneous_data = internal global %struct.expert_field zeroinitializer, align 4
@ei_ansi_801_short_data = internal global %struct.expert_field zeroinitializer, align 4
@.str.294 = private unnamed_addr constant [3 x i8] c"%u\00", align 1

; Function Attrs: null_pointer_is_valid sspstrong uwtable
define internal void @for_pr_gps_sat_health(ptr noundef %0, ptr noundef %1, ptr noundef %2, i32 noundef %3, i32 noundef %4) #0 {
  %6 = alloca ptr, align 8
  %7 = alloca ptr, align 8
  %8 = alloca ptr, align 8
  %9 = alloca i32, align 4
  %10 = alloca i32, align 4
  %11 = alloca i32, align 4
  %12 = alloca i32, align 4
  %13 = alloca i32, align 4
  %14 = alloca i32, align 4
  %15 = alloca i32, align 4
  %16 = alloca i32, align 4
  %17 = alloca i64, align 8
  %18 = alloca i32, align 4
  store ptr %0, ptr %6, align 8
  store ptr %1, ptr %7, align 8
  store ptr %2, ptr %8, align 8
  store i32 %3, ptr %9, align 4
  store i32 %4, ptr %10, align 4
  call void @llvm.lifetime.start.p0(i64 4, ptr %11) #6
  call void @llvm.lifetime.start.p0(i64 4, ptr %12) #6
  call void @llvm.lifetime.start.p0(i64 4, ptr %13) #6
  call void @llvm.lifetime.start.p0(i64 4, ptr %14) #6
  call void @llvm.lifetime.start.p0(i64 4, ptr %15) #6
  call void @llvm.lifetime.start.p0(i64 4, ptr %16) #6
  call void @llvm.lifetime.start.p0(i64 8, ptr %17) #6
  %19 = load i32, ptr %9, align 4
  %20 = icmp ult i32 %19, 1
  br i1 %20, label %21, label %28

21:                                               ; preds = %5
  %22 = load ptr, ptr %8, align 8
  %23 = load ptr, ptr %7, align 8
  %24 = load ptr, ptr %6, align 8
  %25 = load i32, ptr %10, align 4
  %26 = load i32, ptr %9, align 4
  %27 = call ptr @proto_tree_add_expert(ptr noundef %22, ptr noundef %23, ptr noundef @ei_ansi_801_short_data, ptr noundef %24, i32 noundef %25, i32 noundef %26)
  store i32 1, ptr %18, align 4
  br label %115

28:                                               ; preds = %5
  %29 = load i32, ptr %10, align 4
  store i32 %29, ptr %14, align 4
  %30 = load i32, ptr %10, align 4
  %31 = shl i32 %30, 3
  store i32 %31, ptr %11, align 4
  %32 = load ptr, ptr %8, align 8
  %33 = load i32, ptr @hf_ansi_801_bad_sv_present, align 4
  %34 = load ptr, ptr %6, align 8
  %35 = load i32, ptr %11, align 4
  %36 = add i32 %35, 1
  store i32 %36, ptr %11, align 4
  %37 = call ptr @proto_tree_add_bits_ret_val(ptr noundef %32, i32 noundef %33, ptr noundef %34, i32 noundef %35, i32 noundef 1, ptr noundef %17, i32 noundef 0)
  %38 = load i64, ptr %17, align 8
  %39 = icmp ne i64 %38, 0
  br i1 %39, label %40, label %78

40:                                               ; preds = %28
  %41 = load ptr, ptr %6, align 8
  %42 = load i32, ptr %11, align 4
  %43 = call zeroext i8 @tvb_get_bits8(ptr noundef %41, i32 noundef %42, i32 noundef 4)
  %44 = zext i8 %43 to i32
  %45 = add i32 %44, 1
  store i32 %45, ptr %15, align 4
  %46 = load ptr, ptr %8, align 8
  %47 = load i32, ptr @hf_ansi_801_num_bad_sv, align 4
  %48 = load ptr, ptr %6, align 8
  %49 = load i32, ptr %11, align 4
  %50 = load i32, ptr %15, align 4
  %51 = load i32, ptr %15, align 4
  %52 = call ptr (ptr, i32, ptr, i32, i32, i32, i32, ptr, ...) @proto_tree_add_uint_bits_format_value(ptr noundef %46, i32 noundef %47, ptr noundef %48, i32 noundef %49, i32 noundef 4, i32 noundef %50, i32 noundef 0, ptr noundef @.str.294, i32 noundef %51)
  %53 = load i32, ptr %11, align 4
  %54 = add i32 %53, 4
  store i32 %54, ptr %11, align 4
  store i32 0, ptr %13, align 4
  br label %55

55:                                               ; preds = %74, %40
  %56 = load i32, ptr %13, align 4
  %57 = load i32, ptr %15, align 4
  %58 = icmp ult i32 %56, %57
  br i1 %58, label %59, label %77

59:                                               ; preds = %55
  %60 = load ptr, ptr %6, align 8
  %61 = load i32, ptr %11, align 4
  %62 = call zeroext i8 @tvb_get_bits8(ptr noundef %60, i32 noundef %61, i32 noundef 5)
  %63 = zext i8 %62 to i32
  %64 = add i32 %63, 1
  store i32 %64, ptr %16, align 4
  %65 = load ptr, ptr %8, align 8
  %66 = load i32, ptr @hf_ansi_801_bad_sv_prn_num, align 4
  %67 = load ptr, ptr %6, align 8
  %68 = load i32, ptr %11, align 4
  %69 = load i32, ptr %16, align 4
  %70 = load i32, ptr %16, align 4
  %71 = call ptr (ptr, i32, ptr, i32, i32, i32, i32, ptr, ...) @proto_tree_add_uint_bits_format_value(ptr noundef %65, i32 noundef %66, ptr noundef %67, i32 noundef %68, i32 noundef 5, i32 noundef %69, i32 noundef 0, ptr noundef @.str.294, i32 noundef %70)
  %72 = load i32, ptr %11, align 4
  %73 = add i32 %72, 5
  store i32 %73, ptr %11, align 4
  br label %74

74:                                               ; preds = %59
  %75 = load i32, ptr %13, align 4
  %76 = add i32 %75, 1
  store i32 %76, ptr %13, align 4
  br label %55, !llvm.loop !15

77:                                               ; preds = %55
  br label %78

78:                                               ; preds = %77, %28
  %79 = load i32, ptr %11, align 4
  %80 = and i32 %79, 7
  %81 = icmp ne i32 %80, 0
  br i1 %81, label %82, label %95

82:                                               ; preds = %78
  %83 = load i32, ptr %11, align 4
  %84 = and i32 %83, 7
  %85 = sub i32 8, %84
  store i32 %85, ptr %12, align 4
  %86 = load ptr, ptr %8, align 8
  %87 = load i32, ptr @hf_ansi_801_reserved_bits, align 4
  %88 = load ptr, ptr %6, align 8
  %89 = load i32, ptr %11, align 4
  %90 = load i32, ptr %12, align 4
  %91 = call ptr @proto_tree_add_bits_item(ptr noundef %86, i32 noundef %87, ptr noundef %88, i32 noundef %89, i32 noundef %90, i32 noundef 0)
  %92 = load i32, ptr %12, align 4
  %93 = load i32, ptr %11, align 4
  %94 = add i32 %93, %92
  store i32 %94, ptr %11, align 4
  br label %95

95:                                               ; preds = %82, %78
  %96 = load i32, ptr %11, align 4
  %97 = lshr i32 %96, 3
  store i32 %97, ptr %10, align 4
  %98 = load i32, ptr %9, align 4
  %99 = load i32, ptr %10, align 4
  %100 = load i32, ptr %14, align 4
  %101 = sub i32 %99, %100
  %102 = icmp ugt i32 %98, %101
  br i1 %102, label %103, label %114

103:                                              ; preds = %95
  %104 = load ptr, ptr %8, align 8
  %105 = load ptr, ptr %7, align 8
  %106 = load ptr, ptr %6, align 8
  %107 = load i32, ptr %10, align 4
  %108 = load i32, ptr %9, align 4
  %109 = load i32, ptr %10, align 4
  %110 = load i32, ptr %14, align 4
  %111 = sub i32 %109, %110
  %112 = sub i32 %108, %111
  %113 = call ptr @proto_tree_add_expert(ptr noundef %104, ptr noundef %105, ptr noundef @ei_ansi_801_extraneous_data, ptr noundef %106, i32 noundef %107, i32 noundef %112)
  br label %114

114:                                              ; preds = %103, %95
  store i32 0, ptr %18, align 4
  br label %115

115:                                              ; preds = %114, %21
  call void @llvm.lifetime.end.p0(i64 8, ptr %17) #6
  call void @llvm.lifetime.end.p0(i64 4, ptr %16) #6
  call void @llvm.lifetime.end.p0(i64 4, ptr %15) #6
  call void @llvm.lifetime.end.p0(i64 4, ptr %14) #6
  call void @llvm.lifetime.end.p0(i64 4, ptr %13) #6
  call void @llvm.lifetime.end.p0(i64 4, ptr %12) #6
  call void @llvm.lifetime.end.p0(i64 4, ptr %11) #6
  %116 = load i32, ptr %18, align 4
  switch i32 %116, label %118 [
    i32 0, label %117
    i32 1, label %117
  ]

117:                                              ; preds = %115, %115
  ret void

118:                                              ; preds = %115
  unreachable
}