; Function Attrs: null_pointer_is_valid sspstrong uwtable
define internal void @for_pr_gps_sat_health(ptr noundef %0, ptr noundef %1, ptr noundef %2, i32 noundef %3, i32 noundef %4) #0 {
  %6 = alloca i64, align 8
  call void @llvm.lifetime.start.p0(i64 8, ptr nonnull %6) #6
  %7 = icmp eq i32 %3, 0
  br i1 %7, label %8, label %10

8:                                                ; preds = %5
  %9 = tail call ptr @proto_tree_add_expert(ptr noundef %2, ptr noundef %1, ptr noundef nonnull @ei_ansi_801_short_data, ptr noundef %0, i32 noundef %4, i32 noundef 0)
  br label %44

10:                                               ; preds = %5
  %11 = shl i32 %4, 3
  %12 = load i32, ptr @hf_ansi_801_bad_sv_present, align 4
  %13 = or disjoint i32 %11, 1
  %14 = call ptr @proto_tree_add_bits_ret_val(ptr noundef %2, i32 noundef %12, ptr noundef %0, i32 noundef %11, i32 noundef 1, ptr noundef nonnull %6, i32 noundef 0)
  %15 = load i64, ptr %6, align 8
  %.not = icmp eq i64 %15, 0
  br i1 %.not, label %.loopexit, label %16

16:                                               ; preds = %10
  %17 = call zeroext i8 @tvb_get_bits8(ptr noundef %0, i32 noundef %13, i32 noundef 4)
  %18 = zext i8 %17 to i32
  %19 = add nuw nsw i32 %18, 1
  %20 = load i32, ptr @hf_ansi_801_num_bad_sv, align 4
  %21 = call ptr (ptr, i32, ptr, i32, i32, i32, i32, ptr, ...) @proto_tree_add_uint_bits_format_value(ptr noundef %2, i32 noundef %20, ptr noundef %0, i32 noundef %13, i32 noundef 4, i32 noundef %19, i32 noundef 0, ptr noundef nonnull @.str.294, i32 noundef %19)
  %22 = or disjoint i32 %11, 5
  br label %23

23:                                               ; preds = %16, %23
  %.156 = phi i32 [ %22, %16 ], [ %29, %23 ]
  %.04855 = phi i32 [ 0, %16 ], [ %30, %23 ]
  %24 = call zeroext i8 @tvb_get_bits8(ptr noundef %0, i32 noundef %.156, i32 noundef 5)
  %25 = zext i8 %24 to i32
  %26 = add nuw nsw i32 %25, 1
  %27 = load i32, ptr @hf_ansi_801_bad_sv_prn_num, align 4
  %28 = call ptr (ptr, i32, ptr, i32, i32, i32, i32, ptr, ...) @proto_tree_add_uint_bits_format_value(ptr noundef %2, i32 noundef %27, ptr noundef %0, i32 noundef %.156, i32 noundef 5, i32 noundef %26, i32 noundef 0, ptr noundef nonnull @.str.294, i32 noundef %26)
  %29 = add i32 %.156, 5
  %30 = add nuw nsw i32 %.04855, 1
  %exitcond.not = icmp eq i32 %.04855, %18
  br i1 %exitcond.not, label %.loopexit, label %23, !llvm.loop !15

.loopexit:                                        ; preds = %23, %10
  %.0 = phi i32 [ %13, %10 ], [ %29, %23 ]
  %31 = and i32 %.0, 7
  %.not54 = icmp eq i32 %31, 0
  br i1 %.not54, label %37, label %32

32:                                               ; preds = %.loopexit
  %33 = sub nuw nsw i32 8, %31
  %34 = load i32, ptr @hf_ansi_801_reserved_bits, align 4
  %35 = call ptr @proto_tree_add_bits_item(ptr noundef %2, i32 noundef %34, ptr noundef %0, i32 noundef %.0, i32 noundef %33, i32 noundef 0)
  %36 = add i32 %33, %.0
  br label %37

37:                                               ; preds = %32, %.loopexit
  %.2 = phi i32 [ %36, %32 ], [ %.0, %.loopexit ]
  %38 = lshr i32 %.2, 3
  %39 = sub i32 %38, %4
  %40 = icmp ugt i32 %3, %39
  br i1 %40, label %41, label %44

41:                                               ; preds = %37
  %42 = sub nuw i32 %3, %39
  %43 = call ptr @proto_tree_add_expert(ptr noundef %2, ptr noundef %1, ptr noundef nonnull @ei_ansi_801_extraneous_data, ptr noundef %0, i32 noundef %38, i32 noundef %42)
  br label %44

44:                                               ; preds = %37, %41, %8
  call void @llvm.lifetime.end.p0(i64 8, ptr nonnull %6) #6
  ret void
}